Certificate:
    Data:
        Version: 3 (0x2)
        Serial Number:
            02:79:ac:45:8b:c1:b2:45:ab:f9:80:53:cd:2c:9b:b1
        Signature Algorithm: sha256WithRSAEncryption
        Issuer: C = US, O = DigiCert Inc, OU = www.digicert.com, CN = DigiCert Global Root CA
        Validity
            Not Before: Nov 27 12:46:10 2017 GMT
            Not After : Nov 27 12:46:10 2027 GMT
        Subject: C = US, O = DigiCert Inc, OU = www.digicert.com, CN = Encryption Everywhere DV TLS CA - G1
        Subject Public Key Info:
            Public Key Algorithm: rsaEncryption
                RSA Public-Key: (2048 bit)
                Modulus:
                    00:b3:de:3f:ac:24:69:be:35:77:24:21:ea:62:9c:
                    a0:7a:ad:de:34:48:c5:6e:4c:0e:f7:fd:43:28:8e:
                    47:b5:5f:17:02:ba:e7:a7:ac:d1:41:62:21:be:f8:
                    37:da:51:9e:dc:c5:d5:48:18:cc:31:ae:de:9a:59:
                    54:c7:68:95:bc:61:9b:a7:56:4b:d3:8a:fe:51:5e:
                    84:a3:53:d0:e6:08:f5:aa:a4:e8:5f:94:ed:c0:3a:
                    8f:14:82:fa:20:c1:3d:7c:1d:17:8a:ec:dc:a4:72:
                    a7:76:90:9f:aa:63:a6:9d:72:af:b2:01:e9:8e:33:
                    bf:bd:84:7b:f3:e5:67:fe:ab:2b:a2:27:0b:a5:a9:
                    2b:49:cf:54:e6:11:ee:7f:62:0e:e3:de:d4:4e:08:
                    c5:43:01:1f:f4:f7:df:ed:e1:ca:e1:f7:76:f7:e0:
                    89:65:0e:52:48:dd:a4:c6:f2:c5:7f:97:36:57:b9:
                    b8:42:22:c8:1b:22:e0:8b:db:71:30:a1:f2:bb:a2:
                    7c:22:22:e6:60:d7:91:9a:e7:31:3f:27:c1:f6:02:
                    57:ab:fa:90:37:57:91:b8:06:44:b2:ac:47:8a:6e:
                    71:b2:6d:6c:aa:88:91:41:b1:b9:92:36:b7:ba:5f:
                    7b:02:91:73:99:d6:79:cb:c3:05:97:f7:fa:9d:4c:
                    a4:0f
                Exponent: 65537 (0x10001)
        X509v3 extensions:
            X509v3 Subject Key Identifier: 
                55:74:4F:B2:72:4F:F5:60:BA:50:D1:D7:E6:51:5C:9A:01:87:1A:D7
            X509v3 Authority Key Identifier: 
                keyid:03:DE:50:35:56:D1:4C:BB:66:F0:A3:E2:1B:1B:C3:97:B2:3D:D1:55

            X509v3 Key Usage: critical
                Digital Signature, Certificate Sign, CRL Sign
            X509v3 Extended Key Usage: 
                TLS Web Server Authentication, TLS Web Client Authentication
            X509v3 Basic Constraints: critical
                CA:TRUE, pathlen:0
            Authority Information Access: 
                OCSP - URI:http://ocsp.digicert.com

            X509v3 CRL Distribution Points: 

                Full Name:
                  URI:http://crl3.digicert.com/DigiCertGlobalRootCA.crl

            X509v3 Certificate Policies: 
                Policy: 2.16.840.1.114412.1.2
                  CPS: https://www.digicert.com/CPS
                Policy: 2.23.140.1.2.1

    Signature Algorithm: sha256WithRSAEncryption
         2b:71:a9:eb:f6:86:ab:b6:81:66:cc:5f:fe:84:3e:4c:3f:c1:
         4b:05:b7:01:4e:04:4c:af:86:41:fd:a4:17:36:19:91:bc:b9:
         48:5a:c7:74:fa:26:ba:7c:76:1c:1c:d5:89:47:21:1a:8a:1f:
         1a:08:3b:80:75:b4:5b:73:25:40:05:d6:33:4a:f9:2d:4b:d2:
         b5:ca:fc:d9:00:d6:60:d3:da:53:2e:2d:68:24:26:c9:a2:7e:
         54:1f:ba:c3:11:ec:b5:28:a0:3a:54:8d:17:66:ba:be:0e:2b:
         81:ec:62:c5:e8:95:e1:84:81:d3:76:2a:a7:6b:77:4d:e6:47:
         33:d1:12:7e:4b:ac:ef:89:d0:c9:6e:e9:44:67:b3:8f:e4:c2:
         e3:8c:42:6a:00:90:40:ec:f3:36:6c:c4:00:fd:92:9c:2a:c9:
         b0:d1:36:0e:94:55:32:72:fc:27:ac:41:45:d8:e6:3a:c0:b7:
         37:a7:10:b8:ab:91:5d:bc:c1:c9:50:63:0a:a0:00:f2:dd:4b:
         d0:8f:bd:c1:72:5e:ac:b3:f2:12:b8:f2:ac:c2:96:68:11:4b:
         99:f2:bf:00:73:45:e1:98:a1:c0:f1:8e:73:bc:3a:50:77:33:
         05:95:c7:e5:11:73:24:d9:f0:c3:e5:a7:2a:e4:cf:23:41:df:
         9d:51:fc:96
-----BEGIN CERTIFICATE-----
MIIEqjCCA5KgAwIBAgIQAnmsRYvBskWr+YBTzSybsTANBgkqhkiG9w0BAQsFADBh
MQswCQYDVQQGEwJVUzEVMBMGA1UEChMMRGlnaUNlcnQgSW5jMRkwFwYDVQQLExB3
d3cuZGlnaWNlcnQuY29tMSAwHgYDVQQDExdEaWdpQ2VydCBHbG9iYWwgUm9vdCBD
QTAeFw0xNzExMjcxMjQ2MTBaFw0yNzExMjcxMjQ2MTBaMG4xCzAJBgNVBAYTAlVT
MRUwEwYDVQQKEwxEaWdpQ2VydCBJbmMxGTAXBgNVBAsTEHd3dy5kaWdpY2VydC5j
b20xLTArBgNVBAMTJEVuY3J5cHRpb24gRXZlcnl3aGVyZSBEViBUTFMgQ0EgLSBH
MTCCASIwDQYJKoZIhvcNAQEBBQADggEPADCCAQoCggEBALPeP6wkab41dyQh6mKc
oHqt3jRIxW5MDvf9QyiOR7VfFwK656es0UFiIb74N9pRntzF1UgYzDGu3ppZVMdo
lbxhm6dWS9OK/lFehKNT0OYI9aqk6F+U7cA6jxSC+iDBPXwdF4rs3KRyp3aQn6pj
pp1yr7IB6Y4zv72Ee/PlZ/6rK6InC6WpK0nPVOYR7n9iDuPe1E4IxUMBH/T33+3h
yuH3dvfgiWUOUkjdpMbyxX+XNle5uEIiyBsi4IvbcTCh8ruifCIi5mDXkZrnMT8n
wfYCV6v6kDdXkbgGRLKsR4pucbJtbKqIkUGxuZI2t7pfewKRc5nWecvDBZf3+p1M
pA8CAwEAAaOCAU8wggFLMB0GA1UdDgQWBBRVdE+yck/1YLpQ0dfmUVyaAYca1zAf
BgNVHSMEGDAWgBQD3lA1VtFMu2bwo+IbG8OXsj3RVTAOBgNVHQ8BAf8EBAMCAYYw
HQYDVR0lBBYwFAYIKwYBBQUHAwEGCCsGAQUFBwMCMBIGA1UdEwEB/wQIMAYBAf8C
AQAwNAYIKwYBBQUHAQEEKDAmMCQGCCsGAQUFBzABhhhodHRwOi8vb2NzcC5kaWdp
Y2VydC5jb20wQgYDVR0fBDswOTA3oDWgM4YxaHR0cDovL2NybDMuZGlnaWNlcnQu
Y29tL0RpZ2lDZXJ0R2xvYmFsUm9vdENBLmNybDBMBgNVHSAERTBDMDcGCWCGSAGG
/WwBAjAqMCgGCCsGAQUFBwIBFhxodHRwczovL3d3dy5kaWdpY2VydC5jb20vQ1BT
MAgGBmeBDAECATANBgkqhkiG9w0BAQsFAAOCAQEAK3Gp6/aGq7aBZsxf/oQ+TD/B
SwW3AU4ETK+GQf2kFzYZkby5SFrHdPomunx2HBzViUchGoofGgg7gHW0W3MlQAXW
M0r5LUvStcr82QDWYNPaUy4taCQmyaJ+VB+6wxHstSigOlSNF2a6vg4rgexixeiV
4YSB03Yqp2t3TeZHM9ESfkus74nQyW7pRGezj+TC44xCagCQQOzzNmzEAP2SnCrJ
sNE2DpRVMnL8J6xBRdjmOsC3N6cQuKuRXbzByVBjCqAA8t1L0I+9wXJerLPyErjy
rMKWaBFLmfK/AHNF4ZihwPGOc7w6UHczBZXH5RFzJNnww+WnKuTPI0HfnVH8lg==
-----END CERTIFICATE-----
